target datalayout = "e-m:e-p270:32:32-p271:32:32-p272:64:64-i64:64-i128:128-f80:128-n8:16:32:64-S128"
target triple = "x86_64-pc-linux-gnu"

%struct.Scl_Item_t_ = type { i32, i32, %struct.Scl_Pair_t_, %struct.Scl_Pair_t_, %struct.Scl_Pair_t_, i32, i32 }
%struct.Scl_Pair_t_ = type { i32, i32 }
%struct.Scl_Tree_t_ = type { ptr, ptr, i64, i32, i32, i32, ptr, ptr, i64, ptr }

@.str = private unnamed_addr constant [2 x i8] c"(\00", align 1
@.str.1 = private unnamed_addr constant [5 x i8] c") {\0A\00", align 1
@.str.2 = private unnamed_addr constant [3 x i8] c"}\0A\00", align 1
@.str.3 = private unnamed_addr constant [4 x i8] c" : \00", align 1
@.str.4 = private unnamed_addr constant [3 x i8] c";\0A\00", align 1
@.str.5 = private unnamed_addr constant [4 x i8] c");\0A\00", align 1

; Function Attrs: nounwind uwtable
define internal ptr @Scl_LibertyItem(ptr noundef %0, i32 noundef %1) #0 {
  %3 = alloca ptr, align 8
  %4 = alloca i32, align 4
  store ptr %0, ptr %3, align 8
  store i32 %1, ptr %4, align 4
  %5 = load i32, ptr %4, align 4
  %6 = icmp slt i32 %5, 0
  br i1 %6, label %7, label %8

7:                                                ; preds = %2
  br label %15

8:                                                ; preds = %2
  %9 = load ptr, ptr %3, align 8
  %10 = getelementptr inbounds %struct.Scl_Tree_t_, ptr %9, i32 0, i32 6
  %11 = load ptr, ptr %10, align 8
  %12 = load i32, ptr %4, align 4
  %13 = sext i32 %12 to i64
  %14 = getelementptr inbounds %struct.Scl_Item_t_, ptr %11, i64 %13
  br label %15

15:                                               ; preds = %8, %7
  %16 = phi ptr [ null, %7 ], [ %14, %8 ]
  ret ptr %16
}

; Function Attrs: nounwind uwtable
define internal void @Scl_PrintWord(ptr noundef %0, ptr noundef %1, i64 %2) #0 {
  %4 = alloca %struct.Scl_Pair_t_, align 4
  %5 = alloca ptr, align 8
  %6 = alloca ptr, align 8
  %7 = alloca ptr, align 8
  %8 = alloca ptr, align 8
  store i64 %2, ptr %4, align 4
  store ptr %0, ptr %5, align 8
  store ptr %1, ptr %6, align 8
  %9 = load ptr, ptr %6, align 8
  %10 = getelementptr inbounds %struct.Scl_Tree_t_, ptr %9, i32 0, i32 1
  %11 = load ptr, ptr %10, align 8
  %12 = getelementptr inbounds %struct.Scl_Pair_t_, ptr %4, i32 0, i32 0
  %13 = load i32, ptr %12, align 4
  %14 = sext i32 %13 to i64
  %15 = getelementptr inbounds i8, ptr %11, i64 %14
  store ptr %15, ptr %7, align 8
  %16 = load ptr, ptr %6, align 8
  %17 = getelementptr inbounds %struct.Scl_Tree_t_, ptr %16, i32 0, i32 1
  %18 = load ptr, ptr %17, align 8
  %19 = getelementptr inbounds %struct.Scl_Pair_t_, ptr %4, i32 0, i32 1
  %20 = load i32, ptr %19, align 4
  %21 = sext i32 %20 to i64
  %22 = getelementptr inbounds i8, ptr %18, i64 %21
  store ptr %22, ptr %8, align 8
  br label %23

23:                                               ; preds = %27, %3
  %24 = load ptr, ptr %7, align 8
  %25 = load ptr, ptr %8, align 8
  %26 = icmp ult ptr %24, %25
  br i1 %26, label %27, label %34

27:                                               ; preds = %23
  %28 = load ptr, ptr %7, align 8
  %29 = getelementptr inbounds i8, ptr %28, i32 1
  store ptr %29, ptr %7, align 8
  %30 = load i8, ptr %28, align 1
  %31 = sext i8 %30 to i32
  %32 = load ptr, ptr %5, align 8
  %33 = call i32 @fputc(i32 noundef %31, ptr noundef %32)
  br label %23, !llvm.loop !6

34:                                               ; preds = %23
  ret void
}

; Function Attrs: nounwind uwtable
define internal void @Scl_PrintSpace(ptr noundef %0, i32 noundef %1) #0 {
  %3 = alloca ptr, align 8
  %4 = alloca i32, align 4
  %5 = alloca i32, align 4
  store ptr %0, ptr %3, align 8
  store i32 %1, ptr %4, align 4
  store i32 0, ptr %5, align 4
  br label %6

6:                                                ; preds = %13, %2
  %7 = load i32, ptr %5, align 4
  %8 = load i32, ptr %4, align 4
  %9 = icmp slt i32 %7, %8
  br i1 %9, label %10, label %16

10:                                               ; preds = %6
  %11 = load ptr, ptr %3, align 8
  %12 = call i32 @fputc(i32 noundef 32, ptr noundef %11)
  br label %13

13:                                               ; preds = %10
  %14 = load i32, ptr %5, align 4
  %15 = add nsw i32 %14, 1
  store i32 %15, ptr %5, align 4
  br label %6, !llvm.loop !4

16:                                               ; preds = %6
  ret void
}

; Function Attrs: nounwind uwtable
define void @Scl_LibertyParseDumpItem(ptr noundef %0, ptr noundef %1, ptr noundef %2, i32 noundef %3) #0 {
  %5 = alloca ptr, align 8
  %6 = alloca ptr, align 8
  %7 = alloca ptr, align 8
  %8 = alloca i32, align 4
  store ptr %0, ptr %5, align 8
  store ptr %1, ptr %6, align 8
  store ptr %2, ptr %7, align 8
  store i32 %3, ptr %8, align 4
  %9 = load ptr, ptr %7, align 8
  %10 = getelementptr inbounds %struct.Scl_Item_t_, ptr %9, i32 0, i32 0
  %11 = load i32, ptr %10, align 4
  %12 = icmp eq i32 %11, 1
  br i1 %12, label %13, label %51

13:                                               ; preds = %4
  %14 = load ptr, ptr %5, align 8
  %15 = load i32, ptr %8, align 4
  call void @Scl_PrintSpace(ptr noundef %14, i32 noundef %15)
  %16 = load ptr, ptr %5, align 8
  %17 = load ptr, ptr %6, align 8
  %18 = load ptr, ptr %7, align 8
  %19 = getelementptr inbounds %struct.Scl_Item_t_, ptr %18, i32 0, i32 2
  %20 = load i64, ptr %19, align 4
  call void @Scl_PrintWord(ptr noundef %16, ptr noundef %17, i64 %20)
  %21 = load ptr, ptr %5, align 8
  %22 = call i32 (ptr, ptr, ...) @fprintf(ptr noundef %21, ptr noundef @.str) #10
  %23 = load ptr, ptr %5, align 8
  %24 = load ptr, ptr %6, align 8
  %25 = load ptr, ptr %7, align 8
  %26 = getelementptr inbounds %struct.Scl_Item_t_, ptr %25, i32 0, i32 3
  %27 = load i64, ptr %26, align 4
  call void @Scl_PrintWord(ptr noundef %23, ptr noundef %24, i64 %27)
  %28 = load ptr, ptr %5, align 8
  %29 = call i32 (ptr, ptr, ...) @fprintf(ptr noundef %28, ptr noundef @.str.1) #10
  %30 = load ptr, ptr %6, align 8
  %31 = load ptr, ptr %7, align 8
  %32 = getelementptr inbounds %struct.Scl_Item_t_, ptr %31, i32 0, i32 6
  %33 = load i32, ptr %32, align 4
  %34 = call ptr @Scl_LibertyItem(ptr noundef %30, i32 noundef %33)
  %35 = icmp ne ptr %34, null
  br i1 %35, label %36, label %46

36:                                               ; preds = %13
  %37 = load ptr, ptr %5, align 8
  %38 = load ptr, ptr %6, align 8
  %39 = load ptr, ptr %6, align 8
  %40 = load ptr, ptr %7, align 8
  %41 = getelementptr inbounds %struct.Scl_Item_t_, ptr %40, i32 0, i32 6
  %42 = load i32, ptr %41, align 4
  %43 = call ptr @Scl_LibertyItem(ptr noundef %39, i32 noundef %42)
  %44 = load i32, ptr %8, align 4
  %45 = add nsw i32 %44, 2
  call void @Scl_LibertyParseDumpItem(ptr noundef %37, ptr noundef %38, ptr noundef %43, i32 noundef %45)
  br label %46

46:                                               ; preds = %36, %13
  %47 = load ptr, ptr %5, align 8
  %48 = load i32, ptr %8, align 4
  call void @Scl_PrintSpace(ptr noundef %47, i32 noundef %48)
  %49 = load ptr, ptr %5, align 8
  %50 = call i32 (ptr, ptr, ...) @fprintf(ptr noundef %49, ptr noundef @.str.2) #10
  br label %98

51:                                               ; preds = %4
  %52 = load ptr, ptr %7, align 8
  %53 = getelementptr inbounds %struct.Scl_Item_t_, ptr %52, i32 0, i32 0
  %54 = load i32, ptr %53, align 4
  %55 = icmp eq i32 %54, 2
  br i1 %55, label %56, label %73

56:                                               ; preds = %51
  %57 = load ptr, ptr %5, align 8
  %58 = load i32, ptr %8, align 4
  call void @Scl_PrintSpace(ptr noundef %57, i32 noundef %58)
  %59 = load ptr, ptr %5, align 8
  %60 = load ptr, ptr %6, align 8
  %61 = load ptr, ptr %7, align 8
  %62 = getelementptr inbounds %struct.Scl_Item_t_, ptr %61, i32 0, i32 2
  %63 = load i64, ptr %62, align 4
  call void @Scl_PrintWord(ptr noundef %59, ptr noundef %60, i64 %63)
  %64 = load ptr, ptr %5, align 8
  %65 = call i32 (ptr, ptr, ...) @fprintf(ptr noundef %64, ptr noundef @.str.3) #10
  %66 = load ptr, ptr %5, align 8
  %67 = load ptr, ptr %6, align 8
  %68 = load ptr, ptr %7, align 8
  %69 = getelementptr inbounds %struct.Scl_Item_t_, ptr %68, i32 0, i32 3
  %70 = load i64, ptr %69, align 4
  call void @Scl_PrintWord(ptr noundef %66, ptr noundef %67, i64 %70)
  %71 = load ptr, ptr %5, align 8
  %72 = call i32 (ptr, ptr, ...) @fprintf(ptr noundef %71, ptr noundef @.str.4) #10
  br label %97

73:                                               ; preds = %51
  %74 = load ptr, ptr %7, align 8
  %75 = getelementptr inbounds %struct.Scl_Item_t_, ptr %74, i32 0, i32 0
  %76 = load i32, ptr %75, align 4
  %77 = icmp eq i32 %76, 3
  br i1 %77, label %78, label %95

78:                                               ; preds = %73
  %79 = load ptr, ptr %5, align 8
  %80 = load i32, ptr %8, align 4
  call void @Scl_PrintSpace(ptr noundef %79, i32 noundef %80)
  %81 = load ptr, ptr %5, align 8
  %82 = load ptr, ptr %6, align 8
  %83 = load ptr, ptr %7, align 8
  %84 = getelementptr inbounds %struct.Scl_Item_t_, ptr %83, i32 0, i32 2
  %85 = load i64, ptr %84, align 4
  call void @Scl_PrintWord(ptr noundef %81, ptr noundef %82, i64 %85)
  %86 = load ptr, ptr %5, align 8
  %87 = call i32 (ptr, ptr, ...) @fprintf(ptr noundef %86, ptr noundef @.str) #10
  %88 = load ptr, ptr %5, align 8
  %89 = load ptr, ptr %6, align 8
  %90 = load ptr, ptr %7, align 8
  %91 = getelementptr inbounds %struct.Scl_Item_t_, ptr %90, i32 0, i32 3
  %92 = load i64, ptr %91, align 4
  call void @Scl_PrintWord(ptr noundef %88, ptr noundef %89, i64 %92)
  %93 = load ptr, ptr %5, align 8
  %94 = call i32 (ptr, ptr, ...) @fprintf(ptr noundef %93, ptr noundef @.str.5) #10
  br label %96

95:                                               ; preds = %73
  br label %96

96:                                               ; preds = %95, %78
  br label %97

97:                                               ; preds = %96, %56
  br label %98

98:                                               ; preds = %97, %46
  %99 = load ptr, ptr %6, align 8
  %100 = load ptr, ptr %7, align 8
  %101 = getelementptr inbounds %struct.Scl_Item_t_, ptr %100, i32 0, i32 5
  %102 = load i32, ptr %101, align 4
  %103 = call ptr @Scl_LibertyItem(ptr noundef %99, i32 noundef %102)
  %104 = icmp ne ptr %103, null
  br i1 %104, label %105, label %114

105:                                              ; preds = %98
  %106 = load ptr, ptr %5, align 8
  %107 = load ptr, ptr %6, align 8
  %108 = load ptr, ptr %6, align 8
  %109 = load ptr, ptr %7, align 8
  %110 = getelementptr inbounds %struct.Scl_Item_t_, ptr %109, i32 0, i32 5
  %111 = load i32, ptr %110, align 4
  %112 = call ptr @Scl_LibertyItem(ptr noundef %108, i32 noundef %111)
  %113 = load i32, ptr %8, align 4
  call void @Scl_LibertyParseDumpItem(ptr noundef %106, ptr noundef %107, ptr noundef %112, i32 noundef %113)
  br label %114

114:                                              ; preds = %105, %98
  ret void
}