; Function Attrs: nofree nounwind uwtable
define void @Scl_LibertyParseDumpItem(ptr noundef captures(none) %0, ptr noundef readonly captures(none) %1, ptr noundef readonly captures(none) %2, i32 noundef %3) local_unnamed_addr #0 {
  %5 = getelementptr inbounds nuw i8, ptr %1, i64 40
  %6 = icmp sgt i32 %3, 0
  %7 = getelementptr i8, ptr %1, i64 8
  %8 = add nsw i32 %3, 2
  br label %tailrecurse

tailrecurse:                                      ; preds = %Scl_LibertyItem.exit96, %4
  %.tr100 = phi ptr [ %2, %4 ], [ %110, %Scl_LibertyItem.exit96 ]
  %9 = load i32, ptr %.tr100, align 4
  switch i32 %9, label %104 [
    i32 1, label %10
    i32 2, label %47
    i32 3, label %76
  ]

10:                                               ; preds = %tailrecurse
  br i1 %6, label %.lr.ph.i, label %Scl_PrintSpace.exit

.lr.ph.i:                                         ; preds = %10, %.lr.ph.i
  %.03.i = phi i32 [ %12, %.lr.ph.i ], [ 0, %10 ]
  %11 = tail call i32 @fputc(i32 noundef 32, ptr noundef %0)
  %12 = add nuw nsw i32 %.03.i, 1
  %exitcond.not.i = icmp eq i32 %12, %3
  br i1 %exitcond.not.i, label %Scl_PrintSpace.exit, label %.lr.ph.i, !llvm.loop !4

Scl_PrintSpace.exit:                              ; preds = %.lr.ph.i, %10
  %13 = getelementptr inbounds nuw i8, ptr %.tr100, i64 8
  %14 = load i64, ptr %13, align 4
  %.val = load ptr, ptr %7, align 8
  %sext.i = shl i64 %14, 32
  %15 = ashr exact i64 %sext.i, 32
  %16 = ashr i64 %14, 32
  %17 = getelementptr inbounds i8, ptr %.val, i64 %16
  %18 = icmp slt i64 %15, %16
  br i1 %18, label %.lr.ph.preheader.i, label %Scl_PrintWord.exit

.lr.ph.preheader.i:                               ; preds = %Scl_PrintSpace.exit
  %19 = getelementptr inbounds i8, ptr %.val, i64 %15
  br label %.lr.ph.i56

.lr.ph.i56:                                       ; preds = %.lr.ph.i56, %.lr.ph.preheader.i
  %.01.i = phi ptr [ %20, %.lr.ph.i56 ], [ %19, %.lr.ph.preheader.i ]
  %20 = getelementptr inbounds nuw i8, ptr %.01.i, i64 1
  %21 = load i8, ptr %.01.i, align 1
  %22 = sext i8 %21 to i32
  %23 = tail call i32 @fputc(i32 noundef %22, ptr noundef %0)
  %24 = icmp ult ptr %20, %17
  br i1 %24, label %.lr.ph.i56, label %Scl_PrintWord.exit, !llvm.loop !6

Scl_PrintWord.exit:                               ; preds = %.lr.ph.i56, %Scl_PrintSpace.exit
  %fputc49 = tail call i32 @fputc(i32 40, ptr %0)
  %25 = getelementptr inbounds nuw i8, ptr %.tr100, i64 16
  %26 = load i64, ptr %25, align 4
  %.val51 = load ptr, ptr %7, align 8
  %sext.i57 = shl i64 %26, 32
  %27 = ashr exact i64 %sext.i57, 32
  %28 = ashr i64 %26, 32
  %29 = getelementptr inbounds i8, ptr %.val51, i64 %28
  %30 = icmp slt i64 %27, %28
  br i1 %30, label %.lr.ph.preheader.i58, label %Scl_PrintWord.exit61

.lr.ph.preheader.i58:                             ; preds = %Scl_PrintWord.exit
  %31 = getelementptr inbounds i8, ptr %.val51, i64 %27
  br label %.lr.ph.i59

.lr.ph.i59:                                       ; preds = %.lr.ph.i59, %.lr.ph.preheader.i58
  %.01.i60 = phi ptr [ %32, %.lr.ph.i59 ], [ %31, %.lr.ph.preheader.i58 ]
  %32 = getelementptr inbounds nuw i8, ptr %.01.i60, i64 1
  %33 = load i8, ptr %.01.i60, align 1
  %34 = sext i8 %33 to i32
  %35 = tail call i32 @fputc(i32 noundef %34, ptr noundef %0)
  %36 = icmp ult ptr %32, %29
  br i1 %36, label %.lr.ph.i59, label %Scl_PrintWord.exit61, !llvm.loop !6

Scl_PrintWord.exit61:                             ; preds = %.lr.ph.i59, %Scl_PrintWord.exit
  %37 = tail call i64 @fwrite(ptr nonnull @.str.1, i64 4, i64 1, ptr %0)
  %38 = getelementptr inbounds nuw i8, ptr %.tr100, i64 36
  %39 = load i32, ptr %38, align 4
  %40 = icmp slt i32 %39, 0
  br i1 %40, label %Scl_LibertyItem.exit.thread, label %Scl_LibertyItem.exit

Scl_LibertyItem.exit:                             ; preds = %Scl_PrintWord.exit61
  %41 = load ptr, ptr %5, align 8
  %.not = icmp eq ptr %41, null
  br i1 %.not, label %Scl_LibertyItem.exit.thread, label %Scl_LibertyItem.exit62

Scl_LibertyItem.exit62:                           ; preds = %Scl_LibertyItem.exit
  %42 = zext nneg i32 %39 to i64
  %43 = getelementptr inbounds nuw %struct.Scl_Item_t_, ptr %41, i64 %42
  tail call void @Scl_LibertyParseDumpItem(ptr noundef %0, ptr noundef nonnull %1, ptr noundef nonnull %43, i32 noundef %8)
  br label %Scl_LibertyItem.exit.thread

Scl_LibertyItem.exit.thread:                      ; preds = %Scl_PrintWord.exit61, %Scl_LibertyItem.exit62, %Scl_LibertyItem.exit
  br i1 %6, label %.lr.ph.i63, label %Scl_PrintSpace.exit66

.lr.ph.i63:                                       ; preds = %Scl_LibertyItem.exit.thread, %.lr.ph.i63
  %.03.i64 = phi i32 [ %45, %.lr.ph.i63 ], [ 0, %Scl_LibertyItem.exit.thread ]
  %44 = tail call i32 @fputc(i32 noundef 32, ptr noundef %0)
  %45 = add nuw nsw i32 %.03.i64, 1
  %exitcond.not.i65 = icmp eq i32 %45, %3
  br i1 %exitcond.not.i65, label %Scl_PrintSpace.exit66, label %.lr.ph.i63, !llvm.loop !4

Scl_PrintSpace.exit66:                            ; preds = %.lr.ph.i63, %Scl_LibertyItem.exit.thread
  %46 = tail call i64 @fwrite(ptr nonnull @.str.2, i64 2, i64 1, ptr %0)
  br label %104

47:                                               ; preds = %tailrecurse
  br i1 %6, label %.lr.ph.i67, label %Scl_PrintSpace.exit70

.lr.ph.i67:                                       ; preds = %47, %.lr.ph.i67
  %.03.i68 = phi i32 [ %49, %.lr.ph.i67 ], [ 0, %47 ]
  %48 = tail call i32 @fputc(i32 noundef 32, ptr noundef %0)
  %49 = add nuw nsw i32 %.03.i68, 1
  %exitcond.not.i69 = icmp eq i32 %49, %3
  br i1 %exitcond.not.i69, label %Scl_PrintSpace.exit70, label %.lr.ph.i67, !llvm.loop !4

Scl_PrintSpace.exit70:                            ; preds = %.lr.ph.i67, %47
  %50 = getelementptr inbounds nuw i8, ptr %.tr100, i64 8
  %51 = load i64, ptr %50, align 4
  %.val52 = load ptr, ptr %7, align 8
  %sext.i71 = shl i64 %51, 32
  %52 = ashr exact i64 %sext.i71, 32
  %53 = ashr i64 %51, 32
  %54 = getelementptr inbounds i8, ptr %.val52, i64 %53
  %55 = icmp slt i64 %52, %53
  br i1 %55, label %.lr.ph.preheader.i72, label %Scl_PrintWord.exit75

.lr.ph.preheader.i72:                             ; preds = %Scl_PrintSpace.exit70
  %56 = getelementptr inbounds i8, ptr %.val52, i64 %52
  br label %.lr.ph.i73

.lr.ph.i73:                                       ; preds = %.lr.ph.i73, %.lr.ph.preheader.i72
  %.01.i74 = phi ptr [ %57, %.lr.ph.i73 ], [ %56, %.lr.ph.preheader.i72 ]
  %57 = getelementptr inbounds nuw i8, ptr %.01.i74, i64 1
  %58 = load i8, ptr %.01.i74, align 1
  %59 = sext i8 %58 to i32
  %60 = tail call i32 @fputc(i32 noundef %59, ptr noundef %0)
  %61 = icmp ult ptr %57, %54
  br i1 %61, label %.lr.ph.i73, label %Scl_PrintWord.exit75, !llvm.loop !6

Scl_PrintWord.exit75:                             ; preds = %.lr.ph.i73, %Scl_PrintSpace.exit70
  %62 = tail call i64 @fwrite(ptr nonnull @.str.3, i64 3, i64 1, ptr %0)
  %63 = getelementptr inbounds nuw i8, ptr %.tr100, i64 16
  %64 = load i64, ptr %63, align 4
  %.val53 = load ptr, ptr %7, align 8
  %sext.i76 = shl i64 %64, 32
  %65 = ashr exact i64 %sext.i76, 32
  %66 = ashr i64 %64, 32
  %67 = getelementptr inbounds i8, ptr %.val53, i64 %66
  %68 = icmp slt i64 %65, %66
  br i1 %68, label %.lr.ph.preheader.i77, label %Scl_PrintWord.exit80

.lr.ph.preheader.i77:                             ; preds = %Scl_PrintWord.exit75
  %69 = getelementptr inbounds i8, ptr %.val53, i64 %65
  br label %.lr.ph.i78

.lr.ph.i78:                                       ; preds = %.lr.ph.i78, %.lr.ph.preheader.i77
  %.01.i79 = phi ptr [ %70, %.lr.ph.i78 ], [ %69, %.lr.ph.preheader.i77 ]
  %70 = getelementptr inbounds nuw i8, ptr %.01.i79, i64 1
  %71 = load i8, ptr %.01.i79, align 1
  %72 = sext i8 %71 to i32
  %73 = tail call i32 @fputc(i32 noundef %72, ptr noundef %0)
  %74 = icmp ult ptr %70, %67
  br i1 %74, label %.lr.ph.i78, label %Scl_PrintWord.exit80, !llvm.loop !6

Scl_PrintWord.exit80:                             ; preds = %.lr.ph.i78, %Scl_PrintWord.exit75
  %75 = tail call i64 @fwrite(ptr nonnull @.str.4, i64 2, i64 1, ptr %0)
  br label %104

76:                                               ; preds = %tailrecurse
  br i1 %6, label %.lr.ph.i81, label %Scl_PrintSpace.exit84

.lr.ph.i81:                                       ; preds = %76, %.lr.ph.i81
  %.03.i82 = phi i32 [ %78, %.lr.ph.i81 ], [ 0, %76 ]
  %77 = tail call i32 @fputc(i32 noundef 32, ptr noundef %0)
  %78 = add nuw nsw i32 %.03.i82, 1
  %exitcond.not.i83 = icmp eq i32 %78, %3
  br i1 %exitcond.not.i83, label %Scl_PrintSpace.exit84, label %.lr.ph.i81, !llvm.loop !4

Scl_PrintSpace.exit84:                            ; preds = %.lr.ph.i81, %76
  %79 = getelementptr inbounds nuw i8, ptr %.tr100, i64 8
  %80 = load i64, ptr %79, align 4
  %.val54 = load ptr, ptr %7, align 8
  %sext.i85 = shl i64 %80, 32
  %81 = ashr exact i64 %sext.i85, 32
  %82 = ashr i64 %80, 32
  %83 = getelementptr inbounds i8, ptr %.val54, i64 %82
  %84 = icmp slt i64 %81, %82
  br i1 %84, label %.lr.ph.preheader.i86, label %Scl_PrintWord.exit89

.lr.ph.preheader.i86:                             ; preds = %Scl_PrintSpace.exit84
  %85 = getelementptr inbounds i8, ptr %.val54, i64 %81
  br label %.lr.ph.i87

.lr.ph.i87:                                       ; preds = %.lr.ph.i87, %.lr.ph.preheader.i86
  %.01.i88 = phi ptr [ %86, %.lr.ph.i87 ], [ %85, %.lr.ph.preheader.i86 ]
  %86 = getelementptr inbounds nuw i8, ptr %.01.i88, i64 1
  %87 = load i8, ptr %.01.i88, align 1
  %88 = sext i8 %87 to i32
  %89 = tail call i32 @fputc(i32 noundef %88, ptr noundef %0)
  %90 = icmp ult ptr %86, %83
  br i1 %90, label %.lr.ph.i87, label %Scl_PrintWord.exit89, !llvm.loop !6

Scl_PrintWord.exit89:                             ; preds = %.lr.ph.i87, %Scl_PrintSpace.exit84
  %fputc = tail call i32 @fputc(i32 40, ptr %0)
  %91 = getelementptr inbounds nuw i8, ptr %.tr100, i64 16
  %92 = load i64, ptr %91, align 4
  %.val55 = load ptr, ptr %7, align 8
  %sext.i90 = shl i64 %92, 32
  %93 = ashr exact i64 %sext.i90, 32
  %94 = ashr i64 %92, 32
  %95 = getelementptr inbounds i8, ptr %.val55, i64 %94
  %96 = icmp slt i64 %93, %94
  br i1 %96, label %.lr.ph.preheader.i91, label %Scl_PrintWord.exit94

.lr.ph.preheader.i91:                             ; preds = %Scl_PrintWord.exit89
  %97 = getelementptr inbounds i8, ptr %.val55, i64 %93
  br label %.lr.ph.i92

.lr.ph.i92:                                       ; preds = %.lr.ph.i92, %.lr.ph.preheader.i91
  %.01.i93 = phi ptr [ %98, %.lr.ph.i92 ], [ %97, %.lr.ph.preheader.i91 ]
  %98 = getelementptr inbounds nuw i8, ptr %.01.i93, i64 1
  %99 = load i8, ptr %.01.i93, align 1
  %100 = sext i8 %99 to i32
  %101 = tail call i32 @fputc(i32 noundef %100, ptr noundef %0)
  %102 = icmp ult ptr %98, %95
  br i1 %102, label %.lr.ph.i92, label %Scl_PrintWord.exit94, !llvm.loop !6

Scl_PrintWord.exit94:                             ; preds = %.lr.ph.i92, %Scl_PrintWord.exit89
  %103 = tail call i64 @fwrite(ptr nonnull @.str.5, i64 3, i64 1, ptr %0)
  br label %104

104:                                              ; preds = %tailrecurse, %Scl_PrintWord.exit80, %Scl_PrintWord.exit94, %Scl_PrintSpace.exit66
  %105 = getelementptr inbounds nuw i8, ptr %.tr100, i64 32
  %106 = load i32, ptr %105, align 4
  %107 = icmp slt i32 %106, 0
  br i1 %107, label %Scl_LibertyItem.exit95.thread, label %Scl_LibertyItem.exit95

Scl_LibertyItem.exit95:                           ; preds = %104
  %108 = load ptr, ptr %5, align 8
  %.not50 = icmp eq ptr %108, null
  br i1 %.not50, label %Scl_LibertyItem.exit95.thread, label %Scl_LibertyItem.exit96

Scl_LibertyItem.exit96:                           ; preds = %Scl_LibertyItem.exit95
  %109 = zext nneg i32 %106 to i64
  %110 = getelementptr inbounds nuw %struct.Scl_Item_t_, ptr %108, i64 %109
  br label %tailrecurse

Scl_LibertyItem.exit95.thread:                    ; preds = %104, %Scl_LibertyItem.exit95
  ret void
}